; Function Attrs: mustprogress uwtable
define dso_local void @_ZN30cmGlobalUnixMakefileGenerator39ConfigureEv(ptr noundef nonnull align 8 dereferenceable(2120) %0) unnamed_addr #3 align 2 {
  %2 = alloca %"class.std::__cxx11::basic_string", align 8
  %3 = load ptr, ptr %0, align 8
  %4 = getelementptr inbounds i8, ptr %3, i64 304
  %5 = load ptr, ptr %4, align 8
  call void %5(ptr dead_on_unwind nonnull writable sret(%"class.std::__cxx11::basic_string") align 8 %2, ptr noundef nonnull align 8 dereferenceable(1880) %0)
  call void @_ZNSt7__cxx1112basic_stringIcSt11char_traitsIcESaIcEED1Ev(ptr noundef nonnull align 8 dereferenceable(32) %2) #20
  call void @_ZN17cmGlobalGenerator9ConfigureEv(ptr noundef nonnull align 8 dereferenceable(1778) %0)
  ret void
}